; Function Attrs: mustprogress nofree nounwind willreturn memory(write) uwtable
define noundef double @_ZN2mu9ParserInt3PowEdd(double noundef %0, double noundef %1) #7 align 2 {
  %3 = fcmp oge double %0, 0.000000e+00
  %4 = select i1 %3, double 5.000000e-01, double -5.000000e-01
  %5 = fadd double %4, %0
  %6 = fptosi double %5 to i32
  %7 = sitofp i32 %6 to double
  %8 = fcmp oge double %1, 0.000000e+00
  %9 = select i1 %8, double 5.000000e-01, double -5.000000e-01
  %10 = fadd double %9, %1
  %11 = fptosi double %10 to i32
  %12 = sitofp i32 %11 to double
  %13 = tail call double @pow(double noundef %7, double noundef %12) #12
  ret double %13
}